; ModuleID = '7/1194.c'
source_filename = "7/1194.c"
target datalayout = "e-m:e-p270:32:32-p271:32:32-p272:64:64-i64:64-f80:128-n8:16:32:64-S128"
target triple = "x86_64-pc-linux-gnu"

@.str = private unnamed_addr constant [9 x i8] c"%s %s %s\00", align 1
@.str.1 = private unnamed_addr constant [3 x i8] c"%s\00", align 1

; Function Attrs: noinline nounwind uwtable
define dso_local i32 @main(i32 %0, i8** %1) #0 {
  %3 = alloca i32, align 4
  %4 = alloca i32, align 4
  %5 = alloca i8**, align 8
  %6 = alloca i32, align 4
  %7 = alloca i32, align 4
  %8 = alloca i32, align 4
  %9 = alloca i32, align 4
  %10 = alloca i32, align 4
  %11 = alloca i32, align 4
  %12 = alloca i32, align 4
  %13 = alloca i32, align 4
  %14 = alloca [100 x i8], align 16
  %15 = alloca [100 x i8], align 16
  %16 = alloca [100 x i8], align 16
  %17 = alloca [100 x i8], align 16
  store i32 0, i32* %3, align 4
  store i32 %0, i32* %4, align 4
  store i8** %1, i8*** %5, align 8
  %18 = getelementptr inbounds [100 x i8], [100 x i8]* %14, i64 0, i64 0
  %19 = getelementptr inbounds [100 x i8], [100 x i8]* %15, i64 0, i64 0
  %20 = getelementptr inbounds [100 x i8], [100 x i8]* %17, i64 0, i64 0
  %21 = call i32 (i8*, ...) @__isoc99_scanf(i8* getelementptr inbounds ([9 x i8], [9 x i8]* @.str, i64 0, i64 0), i8* %18, i8* %19, i8* %20)
  %22 = getelementptr inbounds [100 x i8], [100 x i8]* %14, i64 0, i64 0
  %23 = call i64 @strlen(i8* %22) #3
  %24 = trunc i64 %23 to i32
  store i32 %24, i32* %6, align 4
  %25 = getelementptr inbounds [100 x i8], [100 x i8]* %15, i64 0, i64 0
  %26 = call i64 @strlen(i8* %25) #3
  %27 = trunc i64 %26 to i32
  store i32 %27, i32* %7, align 4
  %28 = load i32, i32* %6, align 4
  %29 = load i32, i32* %7, align 4
  %30 = sub nsw i32 %28, %29
  store i32 %30, i32* %10, align 4
  store i32 0, i32* %8, align 4
  br label %31

31:                                               ; preds = %95, %2
  %32 = load i32, i32* %8, align 4
  %33 = load i32, i32* %10, align 4
  %34 = icmp sle i32 %32, %33
  br i1 %34, label %35, label %98

35:                                               ; preds = %31
  %36 = getelementptr inbounds [100 x i8], [100 x i8]* %15, i64 0, i64 0
  %37 = load i8, i8* %36, align 16
  %38 = sext i8 %37 to i32
  %39 = load i32, i32* %8, align 4
  %40 = sext i32 %39 to i64
  %41 = getelementptr inbounds [100 x i8], [100 x i8]* %14, i64 0, i64 %40
  %42 = load i8, i8* %41, align 1
  %43 = sext i8 %42 to i32
  %44 = icmp eq i32 %38, %43
  br i1 %44, label %45, label %93

45:                                               ; preds = %35
  %46 = load i32, i32* %8, align 4
  store i32 %46, i32* %11, align 4
  %47 = load i32, i32* %8, align 4
  store i32 %47, i32* %13, align 4
  store i32 0, i32* %9, align 4
  br label %48

48:                                               ; preds = %62, %45
  %49 = load i32, i32* %9, align 4
  %50 = load i32, i32* %7, align 4
  %51 = icmp slt i32 %49, %50
  br i1 %51, label %52, label %65

52:                                               ; preds = %48
  %53 = load i32, i32* %11, align 4
  %54 = sext i32 %53 to i64
  %55 = getelementptr inbounds [100 x i8], [100 x i8]* %14, i64 0, i64 %54
  %56 = load i8, i8* %55, align 1
  %57 = load i32, i32* %9, align 4
  %58 = sext i32 %57 to i64
  %59 = getelementptr inbounds [100 x i8], [100 x i8]* %16, i64 0, i64 %58
  store i8 %56, i8* %59, align 1
  %60 = load i32, i32* %11, align 4
  %61 = add nsw i32 %60, 1
  store i32 %61, i32* %11, align 4
  br label %62

62:                                               ; preds = %52
  %63 = load i32, i32* %9, align 4
  %64 = add nsw i32 %63, 1
  store i32 %64, i32* %9, align 4
  br label %48

65:                                               ; preds = %48
  %66 = load i32, i32* %7, align 4
  %67 = sext i32 %66 to i64
  %68 = getelementptr inbounds [100 x i8], [100 x i8]* %16, i64 0, i64 %67
  store i8 0, i8* %68, align 1
  %69 = getelementptr inbounds [100 x i8], [100 x i8]* %16, i64 0, i64 0
  %70 = getelementptr inbounds [100 x i8], [100 x i8]* %15, i64 0, i64 0
  %71 = call i32 @strcmp(i8* %69, i8* %70) #3
  %72 = icmp eq i32 %71, 0
  br i1 %72, label %73, label %92

73:                                               ; preds = %65
  store i32 0, i32* %12, align 4
  br label %74

74:                                               ; preds = %88, %73
  %75 = load i32, i32* %12, align 4
  %76 = load i32, i32* %7, align 4
  %77 = icmp slt i32 %75, %76
  br i1 %77, label %78, label %91

78:                                               ; preds = %74
  %79 = load i32, i32* %12, align 4
  %80 = sext i32 %79 to i64
  %81 = getelementptr inbounds [100 x i8], [100 x i8]* %17, i64 0, i64 %80
  %82 = load i8, i8* %81, align 1
  %83 = load i32, i32* %13, align 4
  %84 = sext i32 %83 to i64
  %85 = getelementptr inbounds [100 x i8], [100 x i8]* %14, i64 0, i64 %84
  store i8 %82, i8* %85, align 1
  %86 = load i32, i32* %13, align 4
  %87 = add nsw i32 %86, 1
  store i32 %87, i32* %13, align 4
  br label %88

88:                                               ; preds = %78
  %89 = load i32, i32* %12, align 4
  %90 = add nsw i32 %89, 1
  store i32 %90, i32* %12, align 4
  br label %74

91:                                               ; preds = %74
  br label %98

92:                                               ; preds = %65
  br label %94

93:                                               ; preds = %35
  br label %95

94:                                               ; preds = %92
  br label %95

95:                                               ; preds = %94, %93
  %96 = load i32, i32* %8, align 4
  %97 = add nsw i32 %96, 1
  store i32 %97, i32* %8, align 4
  br label %31

98:                                               ; preds = %91, %31
  %99 = getelementptr inbounds [100 x i8], [100 x i8]* %14, i64 0, i64 0
  %100 = call i32 (i8*, ...) @printf(i8* getelementptr inbounds ([3 x i8], [3 x i8]* @.str.1, i64 0, i64 0), i8* %99)
  ret i32 0
}

declare dso_local i32 @__isoc99_scanf(i8*, ...) #1

; Function Attrs: nounwind readonly
declare dso_local i64 @strlen(i8*) #2

; Function Attrs: nounwind readonly
declare dso_local i32 @strcmp(i8*, i8*) #2

declare dso_local i32 @printf(i8*, ...) #1


!llvm.module.flags = !{!0}
!llvm.ident = !{!1}

!0 = !{i32 1, !"wchar_size", i32 4}
!1 = !{!"clang version 10.0.0-4ubuntu1 "}
